c__builtin__
set
p0
((lp1
((F1.899999976158142
F1.100000023841858
tp2
(F1.600000023841858
F1.100000023841858
tp3
(F2.5
F0.0
tp4
tp5
a((F2.5
F0.0
tp6
(F1.600000023841858
F1.100000023841858
tp7
(F0.8999999761581421
F0.6000000238418579
tp8
tp9
a((F0.0
F2.0
tp10
(F0.6000000238418579
F0.8999999761581421
tp11
(F0.8999999761581421
F0.8999999761581421
tp12
tp13
a((F2.5
F0.0
tp14
(F0.8999999761581421
F0.6000000238418579
tp15
(F0.0
F0.0
tp16
tp17
a((F0.8999999761581421
F0.6000000238418579
tp18
(F0.6000000238418579
F0.6000000238418579
tp19
(F0.0
F0.0
tp20
tp21
a((F0.0
F0.0
tp22
(F0.6000000238418579
F0.6000000238418579
tp23
(F0.6000000238418579
F0.8999999761581421
tp24
tp25
a((F0.8999999761581421
F0.8999999761581421
tp26
(F1.600000023841858
F1.100000023841858
tp27
(F1.600000023841858
F1.399999976158142
tp28
tp29
a((F1.600000023841858
F1.100000023841858
tp30
(F0.8999999761581421
F0.8999999761581421
tp31
(F0.8999999761581421
F0.6000000238418579
tp32
tp33
a((F0.0
F2.0
tp34
(F0.0
F0.0
tp35
(F0.6000000238418579
F0.8999999761581421
tp36
tp37
a((F1.600000023841858
F1.399999976158142
tp38
(F0.0
F2.0
tp39
(F0.8999999761581421
F0.8999999761581421
tp40
tp41
a((F1.600000023841858
F1.399999976158142
tp42
(F1.899999976158142
F1.399999976158142
tp43
(F2.5
F2.0
tp44
tp45
a((F2.5
F2.0
tp46
(F1.899999976158142
F1.399999976158142
tp47
(F1.899999976158142
F1.100000023841858
tp48
tp49
a((F0.0
F2.0
tp50
(F1.600000023841858
F1.399999976158142
tp51
(F2.5
F2.0
tp52
tp53
a((F2.5
F2.0
tp54
(F1.899999976158142
F1.100000023841858
tp55
(F2.5
F0.0
tp56
tp57
atp58
Rp59
.