c__builtin__
set
p0
((lp1
((F0.5
F1.2666666507720947
tp2
(F0.30000001192092896
F1.449999988079071
tp3
(F0.75
F0.8999999761581421
tp4
(F0.44999998807907104
F1.449999988079071
tp5
tp6
a((F1.6666666666666667
F0.5666666825612386
tp7
(F2.050000011920929
F0.550000011920929
tp8
(F1.25
F0.8500000238418579
tp9
(F1.699999988079071
F0.30000001192092896
tp10
tp11
a((F2.299999992052714
F1.0333333412806194
tp12
(F2.199999988079071
F1.550000011920929
tp13
(F2.199999988079071
F0.550000011920929
tp14
(F2.5
F1.0
tp15
tp16
a((F1.1333333253860474
F0.8666666746139526
tp17
(F1.25
F1.0
tp18
(F0.8999999761581421
F0.75
tp19
(F1.25
F0.8500000238418579
tp20
tp21
a((F2.099999984105428
F1.5
tp22
(F2.199999988079071
F1.699999988079071
tp23
(F1.899999976158142
F1.25
tp24
(F2.199999988079071
F1.550000011920929
tp25
tp26
a((F0.20000000794728598
F0.9666666587193807
tp27
(F0.0
F1.0
tp28
(F0.30000001192092896
F0.44999998807907104
tp29
(F0.30000001192092896
F1.449999988079071
tp30
tp31
a((F2.0
F0.7333333492279053
tp32
(F1.75
F1.100000023841858
tp33
(F2.050000011920929
F0.550000011920929
tp34
(F2.199999988079071
F0.550000011920929
tp35
tp36
a((F0.5
F0.40000001589457196
tp37
(F0.75
F0.6000000238418579
tp38
(F0.30000001192092896
F0.30000001192092896
tp39
(F0.44999998807907104
F0.30000001192092896
tp40
tp41
a((F1.3666666746139526
F1.799999992052714
tp42
(F0.800000011920929
F1.699999988079071
tp43
(F2.050000011920929
F1.699999988079071
tp44
(F1.25
F2.0
tp45
tp46
a((F2.0
F1.599999984105428
tp47
(F1.75
F1.399999976158142
tp48
(F2.199999988079071
F1.699999988079071
tp49
(F2.050000011920929
F1.699999988079071
tp50
tp51
a((F1.1333333253860474
F0.20000000794728598
tp52
(F1.699999988079071
F0.30000001192092896
tp53
(F0.44999998807907104
F0.30000001192092896
tp54
(F1.25
F0.0
tp55
tp56
a((F0.8333333333333334
F1.4333333174387615
tp57
(F0.800000011920929
F1.699999988079071
tp58
(F0.44999998807907104
F1.449999988079071
tp59
(F1.25
F1.149999976158142
tp60
tp61
a((F0.40000001589457196
F0.5
tp62
(F0.30000001192092896
F0.30000001192092896
tp63
(F0.6000000238418579
F0.75
tp64
(F0.30000001192092896
F0.44999998807907104
tp65
tp66
a((F1.3666666746139526
F1.1333333253860474
tp67
(F1.25
F1.0
tp68
(F1.600000023841858
F1.25
tp69
(F1.25
F1.149999976158142
tp70
tp71
atp72
Rp73
.