(lp0
(lp1
(lp2
I0
aI0
aa(lp3
F2.5
aF0.0
aa(lp4
F2.5
aF2.0
aa(lp5
F0.0
aF2.0
aaa(lp6
(lp7
F0.6
aF0.6
aa(lp8
F0.9
aF0.6
aa(lp9
F0.9
aF0.9
aa(lp10
F0.6
aF0.9
aaa(lp11
(lp12
F1.6
aF1.1
aa(lp13
F1.9
aF1.1
aa(lp14
F1.9
aF1.4
aa(lp15
F1.6
aF1.4
aaa.